; Function Attrs: mustprogress uwtable
define void @_ZN11LayerDialog15keyReleaseEventEP9QKeyEvent(ptr nocapture noundef nonnull align 8 dereferenceable(256) %0, ptr nocapture noundef readonly %1) unnamed_addr #9 align 2 {
  %3 = getelementptr inbounds i8, ptr %1, i64 40
  %4 = load i32, ptr %3, align 8
  %5 = icmp eq i32 %4, 16777248
  br i1 %5, label %6, label %thread-pre-split

6:                                                ; preds = %2
  %7 = getelementptr inbounds i8, ptr %0, i64 240
  %8 = load ptr, ptr %7, align 8
  %.not = icmp eq ptr %8, null
  br i1 %.not, label %thread-pre-split.thread, label %9

9:                                                ; preds = %6
  tail call void @_ZN9QCheckBox13setCheckStateEN2Qt10CheckStateE(ptr noundef nonnull align 8 dereferenceable(48) %8, i32 noundef 0)
  %.pr.pre = load i32, ptr %3, align 8
  br label %thread-pre-split

thread-pre-split:                                 ; preds = %9, %2
  %10 = phi i32 [ %4, %2 ], [ %.pr.pre, %9 ]
  %11 = icmp eq i32 %10, 16777249
  br i1 %11, label %12, label %thread-pre-split.thread

12:                                               ; preds = %thread-pre-split
  %13 = getelementptr inbounds i8, ptr %0, i64 96
  store i8 0, ptr %13, align 8
  br label %thread-pre-split.thread

thread-pre-split.thread:                          ; preds = %6, %12, %thread-pre-split
  ret void
}